target datalayout = "e-m:e-p270:32:32-p271:32:32-p272:64:64-i64:64-i128:128-f80:128-n8:16:32:64-S128"
target triple = "x86_64-pc-linux-gnu"

@hf_control_cs_capabilities_mode_types = internal global i32 0, align 4
@hf_control_cs_capabilities_rtt_capability = internal global i32 0, align 4
@hf_control_cs_capabilities_rtt_aa_only_n = internal global i32 0, align 4
@hf_control_cs_capabilities_rtt_sounding_n = internal global i32 0, align 4
@hf_control_cs_capabilities_rtt_random_sequence_n = internal global i32 0, align 4
@hf_control_cs_capabilities_nadm_sounding_capability = internal global i32 0, align 4
@hf_control_cs_capabilities_nadm_random_sequence_capability = internal global i32 0, align 4
@hf_control_cs_capabilities_cs_sync_phy_capability = internal global i32 0, align 4
@hf_control_cs_capabilities_num_ant = internal global i32 0, align 4
@hf_control_cs_capabilities_max_ant_path = internal global i32 0, align 4
@hf_control_cs_capabilities_role = internal global i32 0, align 4
@hf_control_cs_capabilities_rfu1 = internal global i32 0, align 4
@hf_control_cs_capabilities_no_fae = internal global i32 0, align 4
@hf_control_cs_capabilities_channel_selection_3c = internal global i32 0, align 4
@hf_control_cs_capabilities_sounding_pct_estimate = internal global i32 0, align 4
@hf_control_cs_capabilities_rfu2 = internal global i32 0, align 4
@hf_control_cs_capabilities_num_configs = internal global i32 0, align 4
@hf_control_cs_capabilities_max_procedures_supported = internal global i32 0, align 4
@hf_control_cs_capabilities_t_sw = internal global i32 0, align 4
@hf_control_cs_capabilities_t_ip1_capability = internal global i32 0, align 4
@hf_control_cs_capabilities_t_ip2_capability = internal global i32 0, align 4
@hf_control_cs_capabilities_t_fcs_capability = internal global i32 0, align 4
@hf_control_cs_capabilities_t_pm_capability = internal global i32 0, align 4
@hf_control_cs_capabilities_rfu3 = internal global i32 0, align 4
@hf_control_cs_capabilities_tx_snr_capability = internal global i32 0, align 4
@ett_cs_capabilities_t_ip1 = internal global i32 0, align 4
@ett_cs_capabilities_t_ip2 = internal global i32 0, align 4
@ett_cs_capabilities_t_fcs = internal global i32 0, align 4
@ett_cs_capabilities_t_pm = internal global i32 0, align 4
@hfx_cs_capabilities_t_pm_capability = internal constant [3 x ptr] [ptr @hf_control_cs_capabilities_t_pm_capability_10us, ptr @hf_control_cs_capabilities_t_pm_capability_20us, ptr null], align 16

; Function Attrs: null_pointer_is_valid sspstrong uwtable
define internal i32 @dissect_cs_capabilities_req_and_rsp(ptr noundef %0, ptr noundef %1, i32 noundef %2) #0 {
  %4 = alloca ptr, align 8
  %5 = alloca ptr, align 8
  %6 = alloca i32, align 4
  %7 = alloca ptr, align 8
  %8 = alloca ptr, align 8
  store ptr %0, ptr %4, align 8
  store ptr %1, ptr %5, align 8
  store i32 %2, ptr %6, align 4
  %9 = load ptr, ptr %5, align 8
  %10 = load i32, ptr @hf_control_cs_capabilities_mode_types, align 4
  %11 = load ptr, ptr %4, align 8
  %12 = load i32, ptr %6, align 4
  %13 = call ptr @proto_tree_add_item(ptr noundef %9, i32 noundef %10, ptr noundef %11, i32 noundef %12, i32 noundef 1, i32 noundef -2147483648)
  %14 = load i32, ptr %6, align 4
  %15 = add i32 %14, 1
  store i32 %15, ptr %6, align 4
  %16 = load ptr, ptr %5, align 8
  %17 = load i32, ptr @hf_control_cs_capabilities_rtt_capability, align 4
  %18 = load ptr, ptr %4, align 8
  %19 = load i32, ptr %6, align 4
  %20 = call ptr @proto_tree_add_item(ptr noundef %16, i32 noundef %17, ptr noundef %18, i32 noundef %19, i32 noundef 1, i32 noundef -2147483648)
  %21 = load i32, ptr %6, align 4
  %22 = add i32 %21, 1
  store i32 %22, ptr %6, align 4
  %23 = load ptr, ptr %5, align 8
  %24 = load i32, ptr @hf_control_cs_capabilities_rtt_aa_only_n, align 4
  %25 = load ptr, ptr %4, align 8
  %26 = load i32, ptr %6, align 4
  %27 = call ptr @proto_tree_add_item(ptr noundef %23, i32 noundef %24, ptr noundef %25, i32 noundef %26, i32 noundef 1, i32 noundef -2147483648)
  %28 = load i32, ptr %6, align 4
  %29 = add i32 %28, 1
  store i32 %29, ptr %6, align 4
  %30 = load ptr, ptr %5, align 8
  %31 = load i32, ptr @hf_control_cs_capabilities_rtt_sounding_n, align 4
  %32 = load ptr, ptr %4, align 8
  %33 = load i32, ptr %6, align 4
  %34 = call ptr @proto_tree_add_item(ptr noundef %30, i32 noundef %31, ptr noundef %32, i32 noundef %33, i32 noundef 1, i32 noundef -2147483648)
  %35 = load i32, ptr %6, align 4
  %36 = add i32 %35, 1
  store i32 %36, ptr %6, align 4
  %37 = load ptr, ptr %5, align 8
  %38 = load i32, ptr @hf_control_cs_capabilities_rtt_random_sequence_n, align 4
  %39 = load ptr, ptr %4, align 8
  %40 = load i32, ptr %6, align 4
  %41 = call ptr @proto_tree_add_item(ptr noundef %37, i32 noundef %38, ptr noundef %39, i32 noundef %40, i32 noundef 1, i32 noundef -2147483648)
  %42 = load i32, ptr %6, align 4
  %43 = add i32 %42, 1
  store i32 %43, ptr %6, align 4
  %44 = load ptr, ptr %5, align 8
  %45 = load i32, ptr @hf_control_cs_capabilities_nadm_sounding_capability, align 4
  %46 = load ptr, ptr %4, align 8
  %47 = load i32, ptr %6, align 4
  %48 = call ptr @proto_tree_add_item(ptr noundef %44, i32 noundef %45, ptr noundef %46, i32 noundef %47, i32 noundef 2, i32 noundef -2147483648)
  %49 = load i32, ptr %6, align 4
  %50 = add i32 %49, 2
  store i32 %50, ptr %6, align 4
  %51 = load ptr, ptr %5, align 8
  %52 = load i32, ptr @hf_control_cs_capabilities_nadm_random_sequence_capability, align 4
  %53 = load ptr, ptr %4, align 8
  %54 = load i32, ptr %6, align 4
  %55 = call ptr @proto_tree_add_item(ptr noundef %51, i32 noundef %52, ptr noundef %53, i32 noundef %54, i32 noundef 2, i32 noundef -2147483648)
  %56 = load i32, ptr %6, align 4
  %57 = add i32 %56, 2
  store i32 %57, ptr %6, align 4
  %58 = load ptr, ptr %5, align 8
  %59 = load i32, ptr @hf_control_cs_capabilities_cs_sync_phy_capability, align 4
  %60 = load ptr, ptr %4, align 8
  %61 = load i32, ptr %6, align 4
  %62 = call ptr @proto_tree_add_item(ptr noundef %58, i32 noundef %59, ptr noundef %60, i32 noundef %61, i32 noundef 1, i32 noundef -2147483648)
  %63 = load i32, ptr %6, align 4
  %64 = add i32 %63, 1
  store i32 %64, ptr %6, align 4
  %65 = load ptr, ptr %5, align 8
  %66 = load i32, ptr @hf_control_cs_capabilities_num_ant, align 4
  %67 = load ptr, ptr %4, align 8
  %68 = load i32, ptr %6, align 4
  %69 = call ptr @proto_tree_add_item(ptr noundef %65, i32 noundef %66, ptr noundef %67, i32 noundef %68, i32 noundef 1, i32 noundef -2147483648)
  %70 = load ptr, ptr %5, align 8
  %71 = load i32, ptr @hf_control_cs_capabilities_max_ant_path, align 4
  %72 = load ptr, ptr %4, align 8
  %73 = load i32, ptr %6, align 4
  %74 = call ptr @proto_tree_add_item(ptr noundef %70, i32 noundef %71, ptr noundef %72, i32 noundef %73, i32 noundef 1, i32 noundef -2147483648)
  %75 = load i32, ptr %6, align 4
  %76 = add i32 %75, 1
  store i32 %76, ptr %6, align 4
  %77 = load ptr, ptr %5, align 8
  %78 = load i32, ptr @hf_control_cs_capabilities_role, align 4
  %79 = load ptr, ptr %4, align 8
  %80 = load i32, ptr %6, align 4
  %81 = call ptr @proto_tree_add_item(ptr noundef %77, i32 noundef %78, ptr noundef %79, i32 noundef %80, i32 noundef 1, i32 noundef -2147483648)
  %82 = load ptr, ptr %5, align 8
  %83 = load i32, ptr @hf_control_cs_capabilities_rfu1, align 4
  %84 = load ptr, ptr %4, align 8
  %85 = load i32, ptr %6, align 4
  %86 = call ptr @proto_tree_add_item(ptr noundef %82, i32 noundef %83, ptr noundef %84, i32 noundef %85, i32 noundef 1, i32 noundef -2147483648)
  %87 = load ptr, ptr %5, align 8
  %88 = load i32, ptr @hf_control_cs_capabilities_no_fae, align 4
  %89 = load ptr, ptr %4, align 8
  %90 = load i32, ptr %6, align 4
  %91 = call ptr @proto_tree_add_item(ptr noundef %87, i32 noundef %88, ptr noundef %89, i32 noundef %90, i32 noundef 1, i32 noundef -2147483648)
  %92 = load ptr, ptr %5, align 8
  %93 = load i32, ptr @hf_control_cs_capabilities_channel_selection_3c, align 4
  %94 = load ptr, ptr %4, align 8
  %95 = load i32, ptr %6, align 4
  %96 = call ptr @proto_tree_add_item(ptr noundef %92, i32 noundef %93, ptr noundef %94, i32 noundef %95, i32 noundef 1, i32 noundef -2147483648)
  %97 = load ptr, ptr %5, align 8
  %98 = load i32, ptr @hf_control_cs_capabilities_sounding_pct_estimate, align 4
  %99 = load ptr, ptr %4, align 8
  %100 = load i32, ptr %6, align 4
  %101 = call ptr @proto_tree_add_item(ptr noundef %97, i32 noundef %98, ptr noundef %99, i32 noundef %100, i32 noundef 1, i32 noundef -2147483648)
  %102 = load ptr, ptr %5, align 8
  %103 = load i32, ptr @hf_control_cs_capabilities_rfu2, align 4
  %104 = load ptr, ptr %4, align 8
  %105 = load i32, ptr %6, align 4
  %106 = call ptr @proto_tree_add_item(ptr noundef %102, i32 noundef %103, ptr noundef %104, i32 noundef %105, i32 noundef 1, i32 noundef -2147483648)
  %107 = load i32, ptr %6, align 4
  %108 = add i32 %107, 1
  store i32 %108, ptr %6, align 4
  %109 = load ptr, ptr %5, align 8
  %110 = load i32, ptr @hf_control_cs_capabilities_num_configs, align 4
  %111 = load ptr, ptr %4, align 8
  %112 = load i32, ptr %6, align 4
  %113 = call ptr @proto_tree_add_item(ptr noundef %109, i32 noundef %110, ptr noundef %111, i32 noundef %112, i32 noundef 1, i32 noundef -2147483648)
  %114 = load i32, ptr %6, align 4
  %115 = add i32 %114, 1
  store i32 %115, ptr %6, align 4
  %116 = load ptr, ptr %5, align 8
  %117 = load i32, ptr @hf_control_cs_capabilities_max_procedures_supported, align 4
  %118 = load ptr, ptr %4, align 8
  %119 = load i32, ptr %6, align 4
  %120 = call ptr @proto_tree_add_item(ptr noundef %116, i32 noundef %117, ptr noundef %118, i32 noundef %119, i32 noundef 2, i32 noundef -2147483648)
  %121 = load i32, ptr %6, align 4
  %122 = add i32 %121, 2
  store i32 %122, ptr %6, align 4
  %123 = load ptr, ptr %5, align 8
  %124 = load i32, ptr @hf_control_cs_capabilities_t_sw, align 4
  %125 = load ptr, ptr %4, align 8
  %126 = load i32, ptr %6, align 4
  %127 = call ptr @proto_tree_add_item(ptr noundef %123, i32 noundef %124, ptr noundef %125, i32 noundef %126, i32 noundef 1, i32 noundef -2147483648)
  %128 = load i32, ptr %6, align 4
  %129 = add i32 %128, 1
  store i32 %129, ptr %6, align 4
  call void @llvm.lifetime.start.p0(i64 8, ptr %7) #13
  call void @llvm.lifetime.start.p0(i64 8, ptr %8) #13
  %130 = load ptr, ptr %5, align 8
  %131 = load i32, ptr @hf_control_cs_capabilities_t_ip1_capability, align 4
  %132 = load ptr, ptr %4, align 8
  %133 = load i32, ptr %6, align 4
  %134 = call ptr @proto_tree_add_item(ptr noundef %130, i32 noundef %131, ptr noundef %132, i32 noundef %133, i32 noundef 2, i32 noundef -2147483648)
  store ptr %134, ptr %7, align 8
  %135 = load ptr, ptr %7, align 8
  %136 = load i32, ptr @ett_cs_capabilities_t_ip1, align 4
  %137 = call ptr @proto_item_add_subtree(ptr noundef %135, i32 noundef %136)
  store ptr %137, ptr %8, align 8
  %138 = load ptr, ptr %8, align 8
  %139 = load ptr, ptr %4, align 8
  %140 = load i32, ptr %6, align 4
  call void @proto_tree_add_bitmask_list(ptr noundef %138, ptr noundef %139, i32 noundef %140, i32 noundef 2, ptr noundef @hfx_cs_capabilities_t_ip1_capability, i32 noundef -2147483648)
  %141 = load i32, ptr %6, align 4
  %142 = add i32 %141, 2
  store i32 %142, ptr %6, align 4
  %143 = load ptr, ptr %5, align 8
  %144 = load i32, ptr @hf_control_cs_capabilities_t_ip2_capability, align 4
  %145 = load ptr, ptr %4, align 8
  %146 = load i32, ptr %6, align 4
  %147 = call ptr @proto_tree_add_item(ptr noundef %143, i32 noundef %144, ptr noundef %145, i32 noundef %146, i32 noundef 2, i32 noundef -2147483648)
  store ptr %147, ptr %7, align 8
  %148 = load ptr, ptr %7, align 8
  %149 = load i32, ptr @ett_cs_capabilities_t_ip2, align 4
  %150 = call ptr @proto_item_add_subtree(ptr noundef %148, i32 noundef %149)
  store ptr %150, ptr %8, align 8
  %151 = load ptr, ptr %8, align 8
  %152 = load ptr, ptr %4, align 8
  %153 = load i32, ptr %6, align 4
  call void @proto_tree_add_bitmask_list(ptr noundef %151, ptr noundef %152, i32 noundef %153, i32 noundef 2, ptr noundef @hfx_cs_capabilities_t_ip2_capability, i32 noundef -2147483648)
  %154 = load i32, ptr %6, align 4
  %155 = add i32 %154, 2
  store i32 %155, ptr %6, align 4
  %156 = load ptr, ptr %5, align 8
  %157 = load i32, ptr @hf_control_cs_capabilities_t_fcs_capability, align 4
  %158 = load ptr, ptr %4, align 8
  %159 = load i32, ptr %6, align 4
  %160 = call ptr @proto_tree_add_item(ptr noundef %156, i32 noundef %157, ptr noundef %158, i32 noundef %159, i32 noundef 2, i32 noundef -2147483648)
  store ptr %160, ptr %7, align 8
  %161 = load ptr, ptr %7, align 8
  %162 = load i32, ptr @ett_cs_capabilities_t_fcs, align 4
  %163 = call ptr @proto_item_add_subtree(ptr noundef %161, i32 noundef %162)
  store ptr %163, ptr %8, align 8
  %164 = load ptr, ptr %8, align 8
  %165 = load ptr, ptr %4, align 8
  %166 = load i32, ptr %6, align 4
  call void @proto_tree_add_bitmask_list(ptr noundef %164, ptr noundef %165, i32 noundef %166, i32 noundef 2, ptr noundef @hfx_cs_capabilities_t_fcs_capability, i32 noundef -2147483648)
  %167 = load i32, ptr %6, align 4
  %168 = add i32 %167, 2
  store i32 %168, ptr %6, align 4
  %169 = load ptr, ptr %5, align 8
  %170 = load i32, ptr @hf_control_cs_capabilities_t_pm_capability, align 4
  %171 = load ptr, ptr %4, align 8
  %172 = load i32, ptr %6, align 4
  %173 = call ptr @proto_tree_add_item(ptr noundef %169, i32 noundef %170, ptr noundef %171, i32 noundef %172, i32 noundef 2, i32 noundef -2147483648)
  store ptr %173, ptr %7, align 8
  %174 = load ptr, ptr %7, align 8
  %175 = load i32, ptr @ett_cs_capabilities_t_pm, align 4
  %176 = call ptr @proto_item_add_subtree(ptr noundef %174, i32 noundef %175)
  store ptr %176, ptr %8, align 8
  %177 = load ptr, ptr %8, align 8
  %178 = load ptr, ptr %4, align 8
  %179 = load i32, ptr %6, align 4
  call void @proto_tree_add_bitmask_list(ptr noundef %177, ptr noundef %178, i32 noundef %179, i32 noundef 2, ptr noundef @hfx_cs_capabilities_t_pm_capability, i32 noundef -2147483648)
  %180 = load i32, ptr %6, align 4
  %181 = add i32 %180, 2
  store i32 %181, ptr %6, align 4
  %182 = load ptr, ptr %5, align 8
  %183 = load i32, ptr @hf_control_cs_capabilities_rfu3, align 4
  %184 = load ptr, ptr %4, align 8
  %185 = load i32, ptr %6, align 4
  %186 = call ptr @proto_tree_add_item(ptr noundef %182, i32 noundef %183, ptr noundef %184, i32 noundef %185, i32 noundef 1, i32 noundef -2147483648)
  %187 = load ptr, ptr %5, align 8
  %188 = load i32, ptr @hf_control_cs_capabilities_tx_snr_capability, align 4
  %189 = load ptr, ptr %4, align 8
  %190 = load i32, ptr %6, align 4
  %191 = call ptr @proto_tree_add_item(ptr noundef %187, i32 noundef %188, ptr noundef %189, i32 noundef %190, i32 noundef 1, i32 noundef -2147483648)
  %192 = load i32, ptr %6, align 4
  %193 = add i32 %192, 1
  store i32 %193, ptr %6, align 4
  %194 = load i32, ptr %6, align 4
  call void @llvm.lifetime.end.p0(i64 8, ptr %8) #13
  call void @llvm.lifetime.end.p0(i64 8, ptr %7) #13
  ret i32 %194
}