; Function Attrs: null_pointer_is_valid sspstrong uwtable
define internal fastcc range(i32 28, 30) i32 @dissect_cs_capabilities_req_and_rsp(ptr noundef %0, ptr noundef %1, i32 noundef range(i32 3, 5) %2) unnamed_addr #0 {
  %4 = load i32, ptr @hf_control_cs_capabilities_mode_types, align 4
  %5 = tail call ptr @proto_tree_add_item(ptr noundef %1, i32 noundef %4, ptr noundef %0, i32 noundef %2, i32 noundef 1, i32 noundef -2147483648)
  %6 = add nuw nsw i32 %2, 1
  %7 = load i32, ptr @hf_control_cs_capabilities_rtt_capability, align 4
  %8 = tail call ptr @proto_tree_add_item(ptr noundef %1, i32 noundef %7, ptr noundef %0, i32 noundef %6, i32 noundef 1, i32 noundef -2147483648)
  %9 = add nuw nsw i32 %2, 2
  %10 = load i32, ptr @hf_control_cs_capabilities_rtt_aa_only_n, align 4
  %11 = tail call ptr @proto_tree_add_item(ptr noundef %1, i32 noundef %10, ptr noundef %0, i32 noundef %9, i32 noundef 1, i32 noundef -2147483648)
  %12 = add nuw nsw i32 %2, 3
  %13 = load i32, ptr @hf_control_cs_capabilities_rtt_sounding_n, align 4
  %14 = tail call ptr @proto_tree_add_item(ptr noundef %1, i32 noundef %13, ptr noundef %0, i32 noundef %12, i32 noundef 1, i32 noundef -2147483648)
  %15 = add nuw nsw i32 %2, 4
  %16 = load i32, ptr @hf_control_cs_capabilities_rtt_random_sequence_n, align 4
  %17 = tail call ptr @proto_tree_add_item(ptr noundef %1, i32 noundef %16, ptr noundef %0, i32 noundef %15, i32 noundef 1, i32 noundef -2147483648)
  %18 = add nuw nsw i32 %2, 5
  %19 = load i32, ptr @hf_control_cs_capabilities_nadm_sounding_capability, align 4
  %20 = tail call ptr @proto_tree_add_item(ptr noundef %1, i32 noundef %19, ptr noundef %0, i32 noundef %18, i32 noundef 2, i32 noundef -2147483648)
  %21 = add nuw nsw i32 %2, 7
  %22 = load i32, ptr @hf_control_cs_capabilities_nadm_random_sequence_capability, align 4
  %23 = tail call ptr @proto_tree_add_item(ptr noundef %1, i32 noundef %22, ptr noundef %0, i32 noundef %21, i32 noundef 2, i32 noundef -2147483648)
  %24 = add nuw nsw i32 %2, 9
  %25 = load i32, ptr @hf_control_cs_capabilities_cs_sync_phy_capability, align 4
  %26 = tail call ptr @proto_tree_add_item(ptr noundef %1, i32 noundef %25, ptr noundef %0, i32 noundef %24, i32 noundef 1, i32 noundef -2147483648)
  %27 = add nuw nsw i32 %2, 10
  %28 = load i32, ptr @hf_control_cs_capabilities_num_ant, align 4
  %29 = tail call ptr @proto_tree_add_item(ptr noundef %1, i32 noundef %28, ptr noundef %0, i32 noundef %27, i32 noundef 1, i32 noundef -2147483648)
  %30 = load i32, ptr @hf_control_cs_capabilities_max_ant_path, align 4
  %31 = tail call ptr @proto_tree_add_item(ptr noundef %1, i32 noundef %30, ptr noundef %0, i32 noundef %27, i32 noundef 1, i32 noundef -2147483648)
  %32 = add nuw nsw i32 %2, 11
  %33 = load i32, ptr @hf_control_cs_capabilities_role, align 4
  %34 = tail call ptr @proto_tree_add_item(ptr noundef %1, i32 noundef %33, ptr noundef %0, i32 noundef %32, i32 noundef 1, i32 noundef -2147483648)
  %35 = load i32, ptr @hf_control_cs_capabilities_rfu1, align 4
  %36 = tail call ptr @proto_tree_add_item(ptr noundef %1, i32 noundef %35, ptr noundef %0, i32 noundef %32, i32 noundef 1, i32 noundef -2147483648)
  %37 = load i32, ptr @hf_control_cs_capabilities_no_fae, align 4
  %38 = tail call ptr @proto_tree_add_item(ptr noundef %1, i32 noundef %37, ptr noundef %0, i32 noundef %32, i32 noundef 1, i32 noundef -2147483648)
  %39 = load i32, ptr @hf_control_cs_capabilities_channel_selection_3c, align 4
  %40 = tail call ptr @proto_tree_add_item(ptr noundef %1, i32 noundef %39, ptr noundef %0, i32 noundef %32, i32 noundef 1, i32 noundef -2147483648)
  %41 = load i32, ptr @hf_control_cs_capabilities_sounding_pct_estimate, align 4
  %42 = tail call ptr @proto_tree_add_item(ptr noundef %1, i32 noundef %41, ptr noundef %0, i32 noundef %32, i32 noundef 1, i32 noundef -2147483648)
  %43 = load i32, ptr @hf_control_cs_capabilities_rfu2, align 4
  %44 = tail call ptr @proto_tree_add_item(ptr noundef %1, i32 noundef %43, ptr noundef %0, i32 noundef %32, i32 noundef 1, i32 noundef -2147483648)
  %45 = add nuw nsw i32 %2, 12
  %46 = load i32, ptr @hf_control_cs_capabilities_num_configs, align 4
  %47 = tail call ptr @proto_tree_add_item(ptr noundef %1, i32 noundef %46, ptr noundef %0, i32 noundef %45, i32 noundef 1, i32 noundef -2147483648)
  %48 = add nuw nsw i32 %2, 13
  %49 = load i32, ptr @hf_control_cs_capabilities_max_procedures_supported, align 4
  %50 = tail call ptr @proto_tree_add_item(ptr noundef %1, i32 noundef %49, ptr noundef %0, i32 noundef %48, i32 noundef 2, i32 noundef -2147483648)
  %51 = add nuw nsw i32 %2, 15
  %52 = load i32, ptr @hf_control_cs_capabilities_t_sw, align 4
  %53 = tail call ptr @proto_tree_add_item(ptr noundef %1, i32 noundef %52, ptr noundef %0, i32 noundef %51, i32 noundef 1, i32 noundef -2147483648)
  %54 = or disjoint i32 %2, 16
  %55 = load i32, ptr @hf_control_cs_capabilities_t_ip1_capability, align 4
  %56 = tail call ptr @proto_tree_add_item(ptr noundef %1, i32 noundef %55, ptr noundef %0, i32 noundef %54, i32 noundef 2, i32 noundef -2147483648)
  %57 = load i32, ptr @ett_cs_capabilities_t_ip1, align 4
  %58 = tail call ptr @proto_item_add_subtree(ptr noundef %56, i32 noundef %57)
  tail call void @proto_tree_add_bitmask_list(ptr noundef %58, ptr noundef %0, i32 noundef %54, i32 noundef 2, ptr noundef nonnull @hfx_cs_capabilities_t_ip1_capability, i32 noundef -2147483648)
  %59 = add nuw nsw i32 %2, 18
  %60 = load i32, ptr @hf_control_cs_capabilities_t_ip2_capability, align 4
  %61 = tail call ptr @proto_tree_add_item(ptr noundef %1, i32 noundef %60, ptr noundef %0, i32 noundef %59, i32 noundef 2, i32 noundef -2147483648)
  %62 = load i32, ptr @ett_cs_capabilities_t_ip2, align 4
  %63 = tail call ptr @proto_item_add_subtree(ptr noundef %61, i32 noundef %62)
  tail call void @proto_tree_add_bitmask_list(ptr noundef %63, ptr noundef %0, i32 noundef %59, i32 noundef 2, ptr noundef nonnull @hfx_cs_capabilities_t_ip2_capability, i32 noundef -2147483648)
  %64 = add nuw nsw i32 %2, 20
  %65 = load i32, ptr @hf_control_cs_capabilities_t_fcs_capability, align 4
  %66 = tail call ptr @proto_tree_add_item(ptr noundef %1, i32 noundef %65, ptr noundef %0, i32 noundef %64, i32 noundef 2, i32 noundef -2147483648)
  %67 = load i32, ptr @ett_cs_capabilities_t_fcs, align 4
  %68 = tail call ptr @proto_item_add_subtree(ptr noundef %66, i32 noundef %67)
  tail call void @proto_tree_add_bitmask_list(ptr noundef %68, ptr noundef %0, i32 noundef %64, i32 noundef 2, ptr noundef nonnull @hfx_cs_capabilities_t_fcs_capability, i32 noundef -2147483648)
  %69 = add nuw nsw i32 %2, 22
  %70 = load i32, ptr @hf_control_cs_capabilities_t_pm_capability, align 4
  %71 = tail call ptr @proto_tree_add_item(ptr noundef %1, i32 noundef %70, ptr noundef %0, i32 noundef %69, i32 noundef 2, i32 noundef -2147483648)
  %72 = load i32, ptr @ett_cs_capabilities_t_pm, align 4
  %73 = tail call ptr @proto_item_add_subtree(ptr noundef %71, i32 noundef %72)
  tail call void @proto_tree_add_bitmask_list(ptr noundef %73, ptr noundef %0, i32 noundef %69, i32 noundef 2, ptr noundef nonnull @hfx_cs_capabilities_t_pm_capability, i32 noundef -2147483648)
  %74 = or disjoint i32 %2, 24
  %75 = load i32, ptr @hf_control_cs_capabilities_rfu3, align 4
  %76 = tail call ptr @proto_tree_add_item(ptr noundef %1, i32 noundef %75, ptr noundef %0, i32 noundef %74, i32 noundef 1, i32 noundef -2147483648)
  %77 = load i32, ptr @hf_control_cs_capabilities_tx_snr_capability, align 4
  %78 = tail call ptr @proto_tree_add_item(ptr noundef %1, i32 noundef %77, ptr noundef %0, i32 noundef %74, i32 noundef 1, i32 noundef -2147483648)
  %79 = add nuw nsw i32 %2, 25
  ret i32 %79
}